
obj/kernel.o:     file format elf32-i386


Disassembly of section .text:

00000000 <clear_screen>:
   0:	f3 0f 1e fb          	endbr32 
   4:	55                   	push   %ebp
   5:	89 e5                	mov    %esp,%ebp
   7:	83 ec 10             	sub    $0x10,%esp
   a:	c7 45 fc 00 80 0b 00 	movl   $0xb8000,-0x4(%ebp)
  11:	eb 0a                	jmp    1d <clear_screen+0x1d>
  13:	8b 45 fc             	mov    -0x4(%ebp),%eax
  16:	c6 00 00             	movb   $0x0,(%eax)
  19:	83 45 fc 01          	addl   $0x1,-0x4(%ebp)
  1d:	81 7d fc 9f 8f 0b 00 	cmpl   $0xb8f9f,-0x4(%ebp)
  24:	76 ed                	jbe    13 <clear_screen+0x13>
  26:	90                   	nop
  27:	90                   	nop
  28:	c9                   	leave  
  29:	c3                   	ret    

0000002a <write_char>:
  2a:	f3 0f 1e fb          	endbr32 
  2e:	55                   	push   %ebp
  2f:	89 e5                	mov    %esp,%ebp
  31:	83 ec 1c             	sub    $0x1c,%esp
  34:	8b 4d 08             	mov    0x8(%ebp),%ecx
  37:	8b 55 0c             	mov    0xc(%ebp),%edx
  3a:	8b 45 10             	mov    0x10(%ebp),%eax
  3d:	88 4d ec             	mov    %cl,-0x14(%ebp)
  40:	88 55 e8             	mov    %dl,-0x18(%ebp)
  43:	88 45 e4             	mov    %al,-0x1c(%ebp)
  46:	8b 55 18             	mov    0x18(%ebp),%edx
  49:	89 d0                	mov    %edx,%eax
  4b:	c1 e0 02             	shl    $0x2,%eax
  4e:	01 d0                	add    %edx,%eax
  50:	c1 e0 04             	shl    $0x4,%eax
  53:	89 c2                	mov    %eax,%edx
  55:	8b 45 14             	mov    0x14(%ebp),%eax
  58:	01 d0                	add    %edx,%eax
  5a:	01 c0                	add    %eax,%eax
  5c:	05 00 80 0b 00       	add    $0xb8000,%eax
  61:	89 45 fc             	mov    %eax,-0x4(%ebp)
  64:	8b 45 fc             	mov    -0x4(%ebp),%eax
  67:	0f b6 55 ec          	movzbl -0x14(%ebp),%edx
  6b:	88 10                	mov    %dl,(%eax)
  6d:	0f be 45 e4          	movsbl -0x1c(%ebp),%eax
  71:	c1 e0 04             	shl    $0x4,%eax
  74:	89 c1                	mov    %eax,%ecx
  76:	8b 45 fc             	mov    -0x4(%ebp),%eax
  79:	8d 50 01             	lea    0x1(%eax),%edx
  7c:	89 c8                	mov    %ecx,%eax
  7e:	0a 45 e8             	or     -0x18(%ebp),%al
  81:	88 02                	mov    %al,(%edx)
  83:	90                   	nop
  84:	c9                   	leave  
  85:	c3                   	ret    

00000086 <print>:
  86:	f3 0f 1e fb          	endbr32 
  8a:	55                   	push   %ebp
  8b:	89 e5                	mov    %esp,%ebp
  8d:	57                   	push   %edi
  8e:	56                   	push   %esi
  8f:	53                   	push   %ebx
  90:	83 ec 18             	sub    $0x18,%esp
  93:	8b 55 0c             	mov    0xc(%ebp),%edx
  96:	8b 45 10             	mov    0x10(%ebp),%eax
  99:	88 55 e0             	mov    %dl,-0x20(%ebp)
  9c:	88 45 dc             	mov    %al,-0x24(%ebp)
  9f:	c7 45 ec 00 80 0b 00 	movl   $0xb8000,-0x14(%ebp)
  a6:	c7 45 f0 00 00 00 00 	movl   $0x0,-0x10(%ebp)
  ad:	eb 68                	jmp    117 <print+0x91>
  af:	8b 55 f0             	mov    -0x10(%ebp),%edx
  b2:	8b 45 08             	mov    0x8(%ebp),%eax
  b5:	01 d0                	add    %edx,%eax
  b7:	0f b6 00             	movzbl (%eax),%eax
  ba:	3c 0a                	cmp    $0xa,%al
  bc:	75 19                	jne    d7 <print+0x51>
  be:	c7 05 00 00 00 00 00 	movl   $0x0,0x0
  c5:	00 00 00 
  c8:	a1 04 00 00 00       	mov    0x4,%eax
  cd:	83 c0 01             	add    $0x1,%eax
  d0:	a3 04 00 00 00       	mov    %eax,0x4
  d5:	eb 3c                	jmp    113 <print+0x8d>
  d7:	8b 35 04 00 00 00    	mov    0x4,%esi
  dd:	8b 1d 00 00 00 00    	mov    0x0,%ebx
  e3:	0f be 4d dc          	movsbl -0x24(%ebp),%ecx
  e7:	0f be 55 e0          	movsbl -0x20(%ebp),%edx
  eb:	8b 7d f0             	mov    -0x10(%ebp),%edi
  ee:	8b 45 08             	mov    0x8(%ebp),%eax
  f1:	01 f8                	add    %edi,%eax
  f3:	0f b6 00             	movzbl (%eax),%eax
  f6:	0f be c0             	movsbl %al,%eax
  f9:	56                   	push   %esi
  fa:	53                   	push   %ebx
  fb:	51                   	push   %ecx
  fc:	52                   	push   %edx
  fd:	50                   	push   %eax
  fe:	e8 fc ff ff ff       	call   ff <print+0x79>
 103:	83 c4 14             	add    $0x14,%esp
 106:	a1 00 00 00 00       	mov    0x0,%eax
 10b:	83 c0 01             	add    $0x1,%eax
 10e:	a3 00 00 00 00       	mov    %eax,0x0
 113:	83 45 f0 01          	addl   $0x1,-0x10(%ebp)
 117:	8b 55 f0             	mov    -0x10(%ebp),%edx
 11a:	8b 45 08             	mov    0x8(%ebp),%eax
 11d:	01 d0                	add    %edx,%eax
 11f:	0f b6 00             	movzbl (%eax),%eax
 122:	84 c0                	test   %al,%al
 124:	75 89                	jne    af <print+0x29>
 126:	90                   	nop
 127:	90                   	nop
 128:	8d 65 f4             	lea    -0xc(%ebp),%esp
 12b:	5b                   	pop    %ebx
 12c:	5e                   	pop    %esi
 12d:	5f                   	pop    %edi
 12e:	5d                   	pop    %ebp
 12f:	c3                   	ret    

00000130 <entry>:
 130:	f3 0f 1e fb          	endbr32 
 134:	55                   	push   %ebp
 135:	89 e5                	mov    %esp,%ebp
 137:	e8 fc ff ff ff       	call   138 <entry+0x8>
 13c:	6a 00                	push   $0x0
 13e:	6a 0f                	push   $0xf
 140:	68 00 00 00 00       	push   $0x0
 145:	e8 fc ff ff ff       	call   146 <entry+0x16>
 14a:	83 c4 0c             	add    $0xc,%esp
 14d:	6a 00                	push   $0x0
 14f:	6a 0f                	push   $0xf
 151:	68 00 00 00 00       	push   $0x0
 156:	e8 fc ff ff ff       	call   157 <entry+0x27>
 15b:	83 c4 0c             	add    $0xc,%esp
 15e:	6a 00                	push   $0x0
 160:	6a 0f                	push   $0xf
 162:	68 00 00 00 00       	push   $0x0
 167:	e8 fc ff ff ff       	call   168 <entry+0x38>
 16c:	83 c4 0c             	add    $0xc,%esp
 16f:	90                   	nop
 170:	c9                   	leave  
 171:	c3                   	ret    
